target datalayout = "e-m:e-p270:32:32-p271:32:32-p272:64:64-i64:64-i128:128-f80:128-n8:16:32:64-S128"
target triple = "x86_64-pc-linux-gnu"

%struct._zend_compiler_globals = type { %struct._zend_stack, ptr, ptr, i32, ptr, ptr, ptr, ptr, i8, i8, i8, i8, i8, %struct._zend_llist, ptr, i8, i8, i8, i8, ptr, i32, i32, %struct._zend_oparray_context, %struct._zend_file_context, ptr, %struct._zend_array, ptr, i64, i8, i8, i8, ptr, ptr, %struct._zend_stack, ptr, i32, ptr, ptr, i64, i64, ptr, ptr, ptr, ptr, i32, %struct._zend_stack }
%struct._zend_llist = type { ptr, ptr, i64, i64, ptr, i8, ptr }
%struct._zend_oparray_context = type { i32, i32, i32, i32, i32, i32, i32, ptr, ptr, i8 }
%struct._zend_file_context = type { %struct._zend_declarables, ptr, i8, i8, ptr, ptr, ptr, %struct._zend_array }
%struct._zend_declarables = type { i64 }
%struct._zend_array = type { %struct._zend_refcounted_h, %union.anon.4, i32, %union.anon.6, i32, i32, i32, i32, i64, ptr }
%struct._zend_refcounted_h = type { i32, %union.anon }
%union.anon = type { i32 }
%union.anon.4 = type { i32 }
%union.anon.6 = type { ptr }
%struct._zend_stack = type { i32, i32, i32, ptr }

@compiler_globals = external global %struct._zend_compiler_globals, align 8

; Function Attrs: nounwind uwtable
define void @zend_map_ptr_extend(i64 noundef %0) #0 {
  %2 = alloca i64, align 8
  %3 = alloca ptr, align 8
  store i64 %0, ptr %2, align 8
  %4 = load i64, ptr %2, align 8
  %5 = load i64, ptr getelementptr inbounds (%struct._zend_compiler_globals, ptr @compiler_globals, i32 0, i32 39), align 8
  %6 = icmp ugt i64 %4, %5
  br i1 %6, label %7, label %33

7:                                                ; preds = %1
  %8 = load i64, ptr %2, align 8
  %9 = load i64, ptr getelementptr inbounds (%struct._zend_compiler_globals, ptr @compiler_globals, i32 0, i32 38), align 8
  %10 = icmp uge i64 %8, %9
  br i1 %10, label %11, label %23

11:                                               ; preds = %7
  %12 = load i64, ptr %2, align 8
  %13 = add i64 %12, 4095
  %14 = and i64 %13, -4096
  store i64 %14, ptr getelementptr inbounds (%struct._zend_compiler_globals, ptr @compiler_globals, i32 0, i32 38), align 8
  %15 = load ptr, ptr getelementptr inbounds (%struct._zend_compiler_globals, ptr @compiler_globals, i32 0, i32 36), align 8
  %16 = load i64, ptr getelementptr inbounds (%struct._zend_compiler_globals, ptr @compiler_globals, i32 0, i32 38), align 8
  %17 = mul i64 %16, 8
  %18 = call ptr @__zend_realloc(ptr noundef %15, i64 noundef %17) #22
  store ptr %18, ptr getelementptr inbounds (%struct._zend_compiler_globals, ptr @compiler_globals, i32 0, i32 36), align 8
  %19 = load ptr, ptr getelementptr inbounds (%struct._zend_compiler_globals, ptr @compiler_globals, i32 0, i32 36), align 8
  %20 = ptrtoint ptr %19 to i64
  %21 = sub i64 %20, 1
  %22 = inttoptr i64 %21 to ptr
  store ptr %22, ptr getelementptr inbounds (%struct._zend_compiler_globals, ptr @compiler_globals, i32 0, i32 37), align 8
  br label %23

23:                                               ; preds = %11, %7
  %24 = load ptr, ptr getelementptr inbounds (%struct._zend_compiler_globals, ptr @compiler_globals, i32 0, i32 36), align 8
  %25 = load i64, ptr getelementptr inbounds (%struct._zend_compiler_globals, ptr @compiler_globals, i32 0, i32 39), align 8
  %26 = getelementptr inbounds ptr, ptr %24, i64 %25
  store ptr %26, ptr %3, align 8
  %27 = load ptr, ptr %3, align 8
  %28 = load i64, ptr %2, align 8
  %29 = load i64, ptr getelementptr inbounds (%struct._zend_compiler_globals, ptr @compiler_globals, i32 0, i32 39), align 8
  %30 = sub i64 %28, %29
  %31 = mul i64 %30, 8
  call void @llvm.memset.p0.i64(ptr align 8 %27, i8 0, i64 %31, i1 false)
  %32 = load i64, ptr %2, align 8
  store i64 %32, ptr getelementptr inbounds (%struct._zend_compiler_globals, ptr @compiler_globals, i32 0, i32 39), align 8
  br label %33

33:                                               ; preds = %23, %1
  ret void
}