; Function Attrs: nounwind uwtable
define void @zend_map_ptr_extend(i64 noundef %0) local_unnamed_addr #0 {
  %2 = load i64, ptr getelementptr inbounds (%struct._zend_compiler_globals, ptr @compiler_globals, i64 0, i32 39), align 8
  %3 = icmp ult i64 %2, %0
  br i1 %3, label %4, label %20

4:                                                ; preds = %1
  %5 = load i64, ptr getelementptr inbounds (%struct._zend_compiler_globals, ptr @compiler_globals, i64 0, i32 38), align 8
  %.not = icmp ugt i64 %5, %0
  %.pre = load ptr, ptr getelementptr inbounds (%struct._zend_compiler_globals, ptr @compiler_globals, i64 0, i32 36), align 8
  br i1 %.not, label %14, label %6

6:                                                ; preds = %4
  %7 = add i64 %0, 4095
  %8 = and i64 %7, -4096
  store i64 %8, ptr getelementptr inbounds (%struct._zend_compiler_globals, ptr @compiler_globals, i64 0, i32 38), align 8
  %9 = shl i64 %8, 3
  %10 = tail call ptr @__zend_realloc(ptr noundef %.pre, i64 noundef %9) #31
  store ptr %10, ptr getelementptr inbounds (%struct._zend_compiler_globals, ptr @compiler_globals, i64 0, i32 36), align 8
  %11 = ptrtoint ptr %10 to i64
  %12 = add i64 %11, -1
  %13 = inttoptr i64 %12 to ptr
  store ptr %13, ptr getelementptr inbounds (%struct._zend_compiler_globals, ptr @compiler_globals, i64 0, i32 37), align 8
  %.pre5 = load i64, ptr getelementptr inbounds (%struct._zend_compiler_globals, ptr @compiler_globals, i64 0, i32 39), align 8
  br label %14

14:                                               ; preds = %6, %4
  %15 = phi i64 [ %.pre5, %6 ], [ %2, %4 ]
  %16 = phi ptr [ %10, %6 ], [ %.pre, %4 ]
  %17 = getelementptr inbounds ptr, ptr %16, i64 %15
  %18 = sub i64 %0, %15
  %19 = shl i64 %18, 3
  tail call void @llvm.memset.p0.i64(ptr align 8 %17, i8 0, i64 %19, i1 false)
  store i64 %0, ptr getelementptr inbounds (%struct._zend_compiler_globals, ptr @compiler_globals, i64 0, i32 39), align 8
  br label %20

20:                                               ; preds = %14, %1
  ret void
}